target datalayout = "e-m:e-p270:32:32-p271:32:32-p272:64:64-i64:64-i128:128-f80:128-n8:16:32:64-S128"
target triple = "x86_64-pc-linux-gnu"

@hf_ipcp_opt_type = internal global i32 0, align 4
@hf_ipcp_opt_length = internal global i32 0, align 4
@hf_ipcp_opt_compress_proto = internal global i32 0, align 4
@hf_ipcp_opt_max_cid = internal global i32 0, align 4
@hf_ipcp_opt_mrru = internal global i32 0, align 4
@hf_ipcp_opt_max_slot_id = internal global i32 0, align 4
@hf_ipcp_opt_comp_slot_id = internal global i32 0, align 4
@hf_ipcp_opt_tcp_space = internal global i32 0, align 4
@hf_ipcp_opt_non_tcp_space = internal global i32 0, align 4
@hf_ipcp_opt_f_max_period = internal global i32 0, align 4
@hf_ipcp_opt_f_max_time = internal global i32 0, align 4
@hf_ipcp_opt_max_header = internal global i32 0, align 4
@hf_ipcp_data = internal global i32 0, align 4
@ett_ipcp_compress_opt = internal global i32 0, align 4
@ipcp_rohc_suboption_table = internal global ptr null, align 8
@ipcp_iphc_suboption_table = internal global ptr null, align 8
@proto_ipcp_option_compress = internal global i32 0, align 4
@.str.1006 = private unnamed_addr constant [1 x i8] zeroinitializer, align 1
@.str.1007 = private unnamed_addr constant [2 x i8] c"s\00", align 1
@.str.1295 = private unnamed_addr constant [8 x i8] c"%s (%u)\00", align 1
@.str.1390 = private unnamed_addr constant [24 x i8] c"Suboptions: (%u byte%s)\00", align 1
@.str.1391 = private unnamed_addr constant [5 x i8] c"%u%s\00", align 1
@.str.1392 = private unnamed_addr constant [12 x i8] c" (infinity)\00", align 1

; Function Attrs: null_pointer_is_valid sspstrong uwtable
define internal void @dissect_ipcp_opt_type_len(ptr noundef %0, i32 noundef %1, ptr noundef %2, ptr noundef %3) #1 {
  %5 = alloca ptr, align 8
  %6 = alloca i32, align 4
  %7 = alloca ptr, align 8
  %8 = alloca ptr, align 8
  %9 = alloca i8, align 1
  store ptr %0, ptr %5, align 8
  store i32 %1, ptr %6, align 4
  store ptr %2, ptr %7, align 8
  store ptr %3, ptr %8, align 8
  call void @llvm.lifetime.start.p0(i64 1, ptr %9) #6
  %10 = load ptr, ptr %5, align 8
  %11 = load i32, ptr %6, align 4
  %12 = call zeroext i8 @tvb_get_uint8(ptr noundef %10, i32 noundef %11)
  store i8 %12, ptr %9, align 1
  %13 = load ptr, ptr %7, align 8
  %14 = load i32, ptr @hf_ipcp_opt_type, align 4
  %15 = load ptr, ptr %5, align 8
  %16 = load i32, ptr %6, align 4
  %17 = load i8, ptr %9, align 1
  %18 = zext i8 %17 to i32
  %19 = load ptr, ptr %8, align 8
  %20 = load i8, ptr %9, align 1
  %21 = zext i8 %20 to i32
  %22 = call ptr (ptr, i32, ptr, i32, i32, i32, ptr, ...) @proto_tree_add_uint_format_value(ptr noundef %13, i32 noundef %14, ptr noundef %15, i32 noundef %16, i32 noundef 1, i32 noundef %18, ptr noundef @.str.1295, ptr noundef %19, i32 noundef %21)
  %23 = load ptr, ptr %7, align 8
  %24 = load i32, ptr @hf_ipcp_opt_length, align 4
  %25 = load ptr, ptr %5, align 8
  %26 = load i32, ptr %6, align 4
  %27 = add i32 %26, 1
  %28 = call ptr @proto_tree_add_item(ptr noundef %23, i32 noundef %24, ptr noundef %25, i32 noundef %27, i32 noundef 1, i32 noundef 0)
  call void @llvm.lifetime.end.p0(i64 1, ptr %9) #6
  ret void
}

; Function Attrs: null_pointer_is_valid sspstrong uwtable
define internal i32 @dissect_ipcp_compress_opt(ptr noundef %0, ptr noundef %1, ptr noundef %2, ptr noundef %3) #1 {
  %5 = alloca ptr, align 8
  %6 = alloca ptr, align 8
  %7 = alloca ptr, align 8
  %8 = alloca ptr, align 8
  %9 = alloca ptr, align 8
  %10 = alloca ptr, align 8
  %11 = alloca i32, align 4
  %12 = alloca i32, align 4
  %13 = alloca i16, align 2
  %14 = alloca ptr, align 8
  %15 = alloca ptr, align 8
  store ptr %0, ptr %5, align 8
  store ptr %1, ptr %6, align 8
  store ptr %2, ptr %7, align 8
  store ptr %3, ptr %8, align 8
  call void @llvm.lifetime.start.p0(i64 8, ptr %9) #6
  call void @llvm.lifetime.start.p0(i64 8, ptr %10) #6
  call void @llvm.lifetime.start.p0(i64 4, ptr %11) #6
  store i32 0, ptr %11, align 4
  call void @llvm.lifetime.start.p0(i64 4, ptr %12) #6
  %16 = load ptr, ptr %5, align 8
  %17 = call i32 @tvb_reported_length(ptr noundef %16)
  store i32 %17, ptr %12, align 4
  call void @llvm.lifetime.start.p0(i64 2, ptr %13) #6
  %18 = load ptr, ptr %7, align 8
  %19 = load i32, ptr @proto_ipcp_option_compress, align 4
  %20 = load ptr, ptr %5, align 8
  %21 = load i32, ptr %12, align 4
  %22 = call ptr @proto_tree_add_item(ptr noundef %18, i32 noundef %19, ptr noundef %20, i32 noundef 0, i32 noundef %21, i32 noundef 0)
  store ptr %22, ptr %10, align 8
  %23 = load ptr, ptr %10, align 8
  %24 = load i32, ptr @ett_ipcp_compress_opt, align 4
  %25 = call ptr @proto_item_add_subtree(ptr noundef %23, i32 noundef %24)
  store ptr %25, ptr %9, align 8
  %26 = load ptr, ptr %5, align 8
  %27 = load ptr, ptr %9, align 8
  %28 = load i32, ptr @proto_ipcp_option_compress, align 4
  %29 = call ptr @proto_registrar_get_name(i32 noundef %28)
  call void @dissect_ipcp_opt_type_len(ptr noundef %26, i32 noundef 0, ptr noundef %27, ptr noundef %29)
  %30 = load ptr, ptr %9, align 8
  %31 = load i32, ptr @hf_ipcp_opt_compress_proto, align 4
  %32 = load ptr, ptr %5, align 8
  %33 = load i32, ptr %11, align 4
  %34 = add i32 %33, 2
  %35 = call ptr @proto_tree_add_item(ptr noundef %30, i32 noundef %31, ptr noundef %32, i32 noundef %34, i32 noundef 2, i32 noundef 0)
  %36 = load ptr, ptr %5, align 8
  %37 = load i32, ptr %11, align 4
  %38 = add i32 %37, 2
  %39 = call zeroext i16 @tvb_get_ntohs(ptr noundef %36, i32 noundef %38)
  store i16 %39, ptr %13, align 2
  %40 = load i16, ptr %13, align 2
  %41 = zext i16 %40 to i32
  switch i32 %41, label %177 [
    i32 3, label %42
    i32 55, label %85
    i32 45, label %85
    i32 97, label %98
  ]

42:                                               ; preds = %4
  %43 = load ptr, ptr %9, align 8
  %44 = load i32, ptr @hf_ipcp_opt_max_cid, align 4
  %45 = load ptr, ptr %5, align 8
  %46 = load i32, ptr %11, align 4
  %47 = add i32 %46, 4
  %48 = call ptr @proto_tree_add_item(ptr noundef %43, i32 noundef %44, ptr noundef %45, i32 noundef %47, i32 noundef 2, i32 noundef 0)
  %49 = load ptr, ptr %9, align 8
  %50 = load i32, ptr @hf_ipcp_opt_mrru, align 4
  %51 = load ptr, ptr %5, align 8
  %52 = load i32, ptr %11, align 4
  %53 = add i32 %52, 6
  %54 = call ptr @proto_tree_add_item(ptr noundef %49, i32 noundef %50, ptr noundef %51, i32 noundef %53, i32 noundef 2, i32 noundef 0)
  %55 = load ptr, ptr %9, align 8
  %56 = load i32, ptr @hf_ipcp_opt_max_header, align 4
  %57 = load ptr, ptr %5, align 8
  %58 = load i32, ptr %11, align 4
  %59 = add i32 %58, 8
  %60 = call ptr @proto_tree_add_item(ptr noundef %55, i32 noundef %56, ptr noundef %57, i32 noundef %59, i32 noundef 2, i32 noundef 0)
  %61 = load i32, ptr %12, align 4
  %62 = icmp sgt i32 %61, 10
  br i1 %62, label %63, label %84

63:                                               ; preds = %42
  call void @llvm.lifetime.start.p0(i64 8, ptr %14) #6
  %64 = load i32, ptr %11, align 4
  %65 = add i32 %64, 10
  store i32 %65, ptr %11, align 4
  %66 = load i32, ptr %12, align 4
  %67 = sub i32 %66, 10
  store i32 %67, ptr %12, align 4
  %68 = load ptr, ptr %9, align 8
  %69 = load ptr, ptr %5, align 8
  %70 = load i32, ptr %11, align 4
  %71 = load i32, ptr %12, align 4
  %72 = load i32, ptr @ett_ipcp_compress_opt, align 4
  %73 = load i32, ptr %12, align 4
  %74 = load i32, ptr %12, align 4
  %75 = icmp eq i32 %74, 1
  %76 = select i1 %75, ptr @.str.1006, ptr @.str.1007
  %77 = call ptr (ptr, ptr, i32, i32, i32, ptr, ptr, ...) @proto_tree_add_subtree_format(ptr noundef %68, ptr noundef %69, i32 noundef %70, i32 noundef %71, i32 noundef %72, ptr noundef null, ptr noundef @.str.1390, i32 noundef %73, ptr noundef %76)
  store ptr %77, ptr %14, align 8
  %78 = load ptr, ptr %5, align 8
  %79 = load i32, ptr %11, align 4
  %80 = load i32, ptr %12, align 4
  %81 = load ptr, ptr @ipcp_rohc_suboption_table, align 8
  %82 = load ptr, ptr %6, align 8
  %83 = load ptr, ptr %14, align 8
  call void @ppp_dissect_options(ptr noundef %78, i32 noundef %79, i32 noundef %80, ptr noundef %81, ptr noundef %82, ptr noundef %83)
  call void @llvm.lifetime.end.p0(i64 8, ptr %14) #6
  br label %84

84:                                               ; preds = %63, %42
  br label %190

85:                                               ; preds = %4, %4
  %86 = load ptr, ptr %9, align 8
  %87 = load i32, ptr @hf_ipcp_opt_max_slot_id, align 4
  %88 = load ptr, ptr %5, align 8
  %89 = load i32, ptr %11, align 4
  %90 = add i32 %89, 4
  %91 = call ptr @proto_tree_add_item(ptr noundef %86, i32 noundef %87, ptr noundef %88, i32 noundef %90, i32 noundef 1, i32 noundef 0)
  %92 = load ptr, ptr %9, align 8
  %93 = load i32, ptr @hf_ipcp_opt_comp_slot_id, align 4
  %94 = load ptr, ptr %5, align 8
  %95 = load i32, ptr %11, align 4
  %96 = add i32 %95, 5
  %97 = call ptr @proto_tree_add_item(ptr noundef %92, i32 noundef %93, ptr noundef %94, i32 noundef %96, i32 noundef 1, i32 noundef 0)
  br label %190

98:                                               ; preds = %4
  %99 = load ptr, ptr %9, align 8
  %100 = load i32, ptr @hf_ipcp_opt_tcp_space, align 4
  %101 = load ptr, ptr %5, align 8
  %102 = load i32, ptr %11, align 4
  %103 = add i32 %102, 4
  %104 = call ptr @proto_tree_add_item(ptr noundef %99, i32 noundef %100, ptr noundef %101, i32 noundef %103, i32 noundef 2, i32 noundef 0)
  %105 = load ptr, ptr %9, align 8
  %106 = load i32, ptr @hf_ipcp_opt_non_tcp_space, align 4
  %107 = load ptr, ptr %5, align 8
  %108 = load i32, ptr %11, align 4
  %109 = add i32 %108, 6
  %110 = call ptr @proto_tree_add_item(ptr noundef %105, i32 noundef %106, ptr noundef %107, i32 noundef %109, i32 noundef 2, i32 noundef 0)
  %111 = load ptr, ptr %5, align 8
  %112 = load i32, ptr %11, align 4
  %113 = add i32 %112, 8
  %114 = call zeroext i16 @tvb_get_ntohs(ptr noundef %111, i32 noundef %113)
  store i16 %114, ptr %13, align 2
  %115 = load ptr, ptr %9, align 8
  %116 = load i32, ptr @hf_ipcp_opt_f_max_period, align 4
  %117 = load ptr, ptr %5, align 8
  %118 = load i32, ptr %11, align 4
  %119 = add i32 %118, 8
  %120 = load i16, ptr %13, align 2
  %121 = zext i16 %120 to i32
  %122 = load i16, ptr %13, align 2
  %123 = zext i16 %122 to i32
  %124 = load i16, ptr %13, align 2
  %125 = zext i16 %124 to i32
  %126 = icmp eq i32 %125, 0
  %127 = select i1 %126, ptr @.str.1392, ptr @.str.1006
  %128 = call ptr (ptr, i32, ptr, i32, i32, i32, ptr, ...) @proto_tree_add_uint_format_value(ptr noundef %115, i32 noundef %116, ptr noundef %117, i32 noundef %119, i32 noundef 2, i32 noundef %121, ptr noundef @.str.1391, i32 noundef %123, ptr noundef %127)
  %129 = load ptr, ptr %5, align 8
  %130 = load i32, ptr %11, align 4
  %131 = add i32 %130, 10
  %132 = call zeroext i16 @tvb_get_ntohs(ptr noundef %129, i32 noundef %131)
  store i16 %132, ptr %13, align 2
  %133 = load ptr, ptr %9, align 8
  %134 = load i32, ptr @hf_ipcp_opt_f_max_time, align 4
  %135 = load ptr, ptr %5, align 8
  %136 = load i32, ptr %11, align 4
  %137 = add i32 %136, 10
  %138 = load i16, ptr %13, align 2
  %139 = zext i16 %138 to i32
  %140 = load i16, ptr %13, align 2
  %141 = zext i16 %140 to i32
  %142 = load i16, ptr %13, align 2
  %143 = zext i16 %142 to i32
  %144 = icmp eq i32 %143, 0
  %145 = select i1 %144, ptr @.str.1392, ptr @.str.1006
  %146 = call ptr (ptr, i32, ptr, i32, i32, i32, ptr, ...) @proto_tree_add_uint_format_value(ptr noundef %133, i32 noundef %134, ptr noundef %135, i32 noundef %137, i32 noundef 2, i32 noundef %139, ptr noundef @.str.1391, i32 noundef %141, ptr noundef %145)
  %147 = load ptr, ptr %9, align 8
  %148 = load i32, ptr @hf_ipcp_opt_max_header, align 4
  %149 = load ptr, ptr %5, align 8
  %150 = load i32, ptr %11, align 4
  %151 = add i32 %150, 12
  %152 = call ptr @proto_tree_add_item(ptr noundef %147, i32 noundef %148, ptr noundef %149, i32 noundef %151, i32 noundef 2, i32 noundef 0)
  %153 = load i32, ptr %12, align 4
  %154 = icmp sgt i32 %153, 14
  br i1 %154, label %155, label %176

155:                                              ; preds = %98
  call void @llvm.lifetime.start.p0(i64 8, ptr %15) #6
  %156 = load i32, ptr %11, align 4
  %157 = add i32 %156, 14
  store i32 %157, ptr %11, align 4
  %158 = load i32, ptr %12, align 4
  %159 = sub i32 %158, 14
  store i32 %159, ptr %12, align 4
  %160 = load ptr, ptr %9, align 8
  %161 = load ptr, ptr %5, align 8
  %162 = load i32, ptr %11, align 4
  %163 = load i32, ptr %12, align 4
  %164 = load i32, ptr @ett_ipcp_compress_opt, align 4
  %165 = load i32, ptr %12, align 4
  %166 = load i32, ptr %12, align 4
  %167 = icmp eq i32 %166, 1
  %168 = select i1 %167, ptr @.str.1006, ptr @.str.1007
  %169 = call ptr (ptr, ptr, i32, i32, i32, ptr, ptr, ...) @proto_tree_add_subtree_format(ptr noundef %160, ptr noundef %161, i32 noundef %162, i32 noundef %163, i32 noundef %164, ptr noundef null, ptr noundef @.str.1390, i32 noundef %165, ptr noundef %168)
  store ptr %169, ptr %15, align 8
  %170 = load ptr, ptr %5, align 8
  %171 = load i32, ptr %11, align 4
  %172 = load i32, ptr %12, align 4
  %173 = load ptr, ptr @ipcp_iphc_suboption_table, align 8
  %174 = load ptr, ptr %6, align 8
  %175 = load ptr, ptr %15, align 8
  call void @ppp_dissect_options(ptr noundef %170, i32 noundef %171, i32 noundef %172, ptr noundef %173, ptr noundef %174, ptr noundef %175)
  call void @llvm.lifetime.end.p0(i64 8, ptr %15) #6
  br label %176

176:                                              ; preds = %155, %98
  br label %190

177:                                              ; preds = %4
  %178 = load i32, ptr %12, align 4
  %179 = icmp sgt i32 %178, 4
  br i1 %179, label %180, label %189

180:                                              ; preds = %177
  %181 = load ptr, ptr %9, align 8
  %182 = load i32, ptr @hf_ipcp_data, align 4
  %183 = load ptr, ptr %5, align 8
  %184 = load i32, ptr %11, align 4
  %185 = add i32 %184, 4
  %186 = load i32, ptr %12, align 4
  %187 = sub i32 %186, 4
  %188 = call ptr @proto_tree_add_item(ptr noundef %181, i32 noundef %182, ptr noundef %183, i32 noundef %185, i32 noundef %187, i32 noundef 0)
  br label %189

189:                                              ; preds = %180, %177
  br label %190

190:                                              ; preds = %189, %176, %85, %84
  %191 = load ptr, ptr %5, align 8
  %192 = call i32 @tvb_captured_length(ptr noundef %191)
  call void @llvm.lifetime.end.p0(i64 2, ptr %13) #6
  call void @llvm.lifetime.end.p0(i64 4, ptr %12) #6
  call void @llvm.lifetime.end.p0(i64 4, ptr %11) #6
  call void @llvm.lifetime.end.p0(i64 8, ptr %10) #6
  call void @llvm.lifetime.end.p0(i64 8, ptr %9) #6
  ret i32 %192
}