; Function Attrs: null_pointer_is_valid sspstrong uwtable
define internal i32 @dissect_ipcp_compress_opt(ptr noundef %0, ptr noundef %1, ptr noundef %2, ptr readnone captures(none) %3) #1 {
  %5 = tail call i32 @tvb_reported_length(ptr noundef %0)
  %6 = load i32, ptr @proto_ipcp_option_compress, align 4
  %7 = tail call ptr @proto_tree_add_item(ptr noundef %2, i32 noundef %6, ptr noundef %0, i32 noundef 0, i32 noundef %5, i32 noundef 0)
  %8 = load i32, ptr @ett_ipcp_compress_opt, align 4
  %9 = tail call ptr @proto_item_add_subtree(ptr noundef %7, i32 noundef %8)
  %10 = load i32, ptr @proto_ipcp_option_compress, align 4
  %11 = tail call ptr @proto_registrar_get_name(i32 noundef %10)
  %12 = tail call zeroext i8 @tvb_get_uint8(ptr noundef %0, i32 noundef 0)
  %13 = load i32, ptr @hf_ipcp_opt_type, align 4
  %14 = zext i8 %12 to i32
  %15 = tail call ptr (ptr, i32, ptr, i32, i32, i32, ptr, ...) @proto_tree_add_uint_format_value(ptr noundef %9, i32 noundef %13, ptr noundef %0, i32 noundef 0, i32 noundef 1, i32 noundef %14, ptr noundef nonnull @.str.1295, ptr noundef %11, i32 noundef %14)
  %16 = load i32, ptr @hf_ipcp_opt_length, align 4
  %17 = tail call ptr @proto_tree_add_item(ptr noundef %9, i32 noundef %16, ptr noundef %0, i32 noundef 1, i32 noundef 1, i32 noundef 0)
  %18 = load i32, ptr @hf_ipcp_opt_compress_proto, align 4
  %19 = tail call ptr @proto_tree_add_item(ptr noundef %9, i32 noundef %18, ptr noundef %0, i32 noundef 2, i32 noundef 2, i32 noundef 0)
  %20 = tail call zeroext i16 @tvb_get_ntohs(ptr noundef %0, i32 noundef 2)
  switch i16 %20, label %68 [
    i16 3, label %21
    i16 55, label %36
    i16 45, label %36
    i16 97, label %41
  ]

21:                                               ; preds = %4
  %22 = load i32, ptr @hf_ipcp_opt_max_cid, align 4
  %23 = tail call ptr @proto_tree_add_item(ptr noundef %9, i32 noundef %22, ptr noundef %0, i32 noundef 4, i32 noundef 2, i32 noundef 0)
  %24 = load i32, ptr @hf_ipcp_opt_mrru, align 4
  %25 = tail call ptr @proto_tree_add_item(ptr noundef %9, i32 noundef %24, ptr noundef %0, i32 noundef 6, i32 noundef 2, i32 noundef 0)
  %26 = load i32, ptr @hf_ipcp_opt_max_header, align 4
  %27 = tail call ptr @proto_tree_add_item(ptr noundef %9, i32 noundef %26, ptr noundef %0, i32 noundef 8, i32 noundef 2, i32 noundef 0)
  %28 = icmp sgt i32 %5, 10
  br i1 %28, label %29, label %74

29:                                               ; preds = %21
  %30 = add nsw i32 %5, -10
  %31 = load i32, ptr @ett_ipcp_compress_opt, align 4
  %32 = icmp eq i32 %30, 1
  %33 = select i1 %32, ptr @.str.1006, ptr @.str.1007
  %34 = tail call ptr (ptr, ptr, i32, i32, i32, ptr, ptr, ...) @proto_tree_add_subtree_format(ptr noundef %9, ptr noundef %0, i32 noundef 10, i32 noundef %30, i32 noundef %31, ptr noundef null, ptr noundef nonnull @.str.1390, i32 noundef %30, ptr noundef nonnull %33)
  %35 = load ptr, ptr @ipcp_rohc_suboption_table, align 8
  tail call fastcc void @ppp_dissect_options(ptr noundef %0, i32 noundef 10, i32 noundef %30, ptr noundef %35, ptr noundef %1, ptr noundef %34)
  br label %74

36:                                               ; preds = %4, %4
  %37 = load i32, ptr @hf_ipcp_opt_max_slot_id, align 4
  %38 = tail call ptr @proto_tree_add_item(ptr noundef %9, i32 noundef %37, ptr noundef %0, i32 noundef 4, i32 noundef 1, i32 noundef 0)
  %39 = load i32, ptr @hf_ipcp_opt_comp_slot_id, align 4
  %40 = tail call ptr @proto_tree_add_item(ptr noundef %9, i32 noundef %39, ptr noundef %0, i32 noundef 5, i32 noundef 1, i32 noundef 0)
  br label %74

41:                                               ; preds = %4
  %42 = load i32, ptr @hf_ipcp_opt_tcp_space, align 4
  %43 = tail call ptr @proto_tree_add_item(ptr noundef %9, i32 noundef %42, ptr noundef %0, i32 noundef 4, i32 noundef 2, i32 noundef 0)
  %44 = load i32, ptr @hf_ipcp_opt_non_tcp_space, align 4
  %45 = tail call ptr @proto_tree_add_item(ptr noundef %9, i32 noundef %44, ptr noundef %0, i32 noundef 6, i32 noundef 2, i32 noundef 0)
  %46 = tail call zeroext i16 @tvb_get_ntohs(ptr noundef %0, i32 noundef 8)
  %47 = load i32, ptr @hf_ipcp_opt_f_max_period, align 4
  %48 = zext i16 %46 to i32
  %49 = icmp eq i16 %46, 0
  %50 = select i1 %49, ptr @.str.1392, ptr @.str.1006
  %51 = tail call ptr (ptr, i32, ptr, i32, i32, i32, ptr, ...) @proto_tree_add_uint_format_value(ptr noundef %9, i32 noundef %47, ptr noundef %0, i32 noundef 8, i32 noundef 2, i32 noundef %48, ptr noundef nonnull @.str.1391, i32 noundef %48, ptr noundef nonnull %50)
  %52 = tail call zeroext i16 @tvb_get_ntohs(ptr noundef %0, i32 noundef 10)
  %53 = load i32, ptr @hf_ipcp_opt_f_max_time, align 4
  %54 = zext i16 %52 to i32
  %55 = icmp eq i16 %52, 0
  %56 = select i1 %55, ptr @.str.1392, ptr @.str.1006
  %57 = tail call ptr (ptr, i32, ptr, i32, i32, i32, ptr, ...) @proto_tree_add_uint_format_value(ptr noundef %9, i32 noundef %53, ptr noundef %0, i32 noundef 10, i32 noundef 2, i32 noundef %54, ptr noundef nonnull @.str.1391, i32 noundef %54, ptr noundef nonnull %56)
  %58 = load i32, ptr @hf_ipcp_opt_max_header, align 4
  %59 = tail call ptr @proto_tree_add_item(ptr noundef %9, i32 noundef %58, ptr noundef %0, i32 noundef 12, i32 noundef 2, i32 noundef 0)
  %60 = icmp sgt i32 %5, 14
  br i1 %60, label %61, label %74

61:                                               ; preds = %41
  %62 = add nsw i32 %5, -14
  %63 = load i32, ptr @ett_ipcp_compress_opt, align 4
  %64 = icmp eq i32 %62, 1
  %65 = select i1 %64, ptr @.str.1006, ptr @.str.1007
  %66 = tail call ptr (ptr, ptr, i32, i32, i32, ptr, ptr, ...) @proto_tree_add_subtree_format(ptr noundef %9, ptr noundef %0, i32 noundef 14, i32 noundef %62, i32 noundef %63, ptr noundef null, ptr noundef nonnull @.str.1390, i32 noundef %62, ptr noundef nonnull %65)
  %67 = load ptr, ptr @ipcp_iphc_suboption_table, align 8
  tail call fastcc void @ppp_dissect_options(ptr noundef %0, i32 noundef 14, i32 noundef %62, ptr noundef %67, ptr noundef %1, ptr noundef %66)
  br label %74

68:                                               ; preds = %4
  %69 = icmp sgt i32 %5, 4
  br i1 %69, label %70, label %74

70:                                               ; preds = %68
  %71 = load i32, ptr @hf_ipcp_data, align 4
  %72 = add nsw i32 %5, -4
  %73 = tail call ptr @proto_tree_add_item(ptr noundef %9, i32 noundef %71, ptr noundef %0, i32 noundef 4, i32 noundef %72, i32 noundef 0)
  br label %74

74:                                               ; preds = %68, %70, %41, %61, %21, %29, %36
  %75 = tail call i32 @tvb_captured_length(ptr noundef %0)
  ret i32 %75
}